target datalayout = "e-m:e-p270:32:32-p271:32:32-p272:64:64-i64:64-i128:128-f80:128-n8:16:32:64-S128"
target triple = "x86_64-pc-linux-gnu"

%struct.AVInteger = type { [8 x i16] }

; Function Attrs: nounwind willreturn memory(none) uwtable
define i64 @av_i2int(i64 %0, i64 %1) #0 {
  %3 = alloca %struct.AVInteger, align 2
  %4 = alloca i64, align 8
  %5 = alloca i32, align 4
  %6 = getelementptr inbounds nuw { i64, i64 }, ptr %3, i32 0, i32 0
  store i64 %0, ptr %6, align 2
  %7 = getelementptr inbounds nuw { i64, i64 }, ptr %3, i32 0, i32 1
  store i64 %1, ptr %7, align 2
  call void @llvm.lifetime.start.p0(i64 8, ptr %4) #6
  %8 = getelementptr inbounds nuw %struct.AVInteger, ptr %3, i32 0, i32 0
  %9 = getelementptr inbounds [8 x i16], ptr %8, i64 0, i64 3
  %10 = load i16, ptr %9, align 2, !tbaa !8
  %11 = zext i16 %10 to i64
  store i64 %11, ptr %4, align 8, !tbaa !24
  call void @llvm.lifetime.start.p0(i64 4, ptr %5) #6
  store i32 2, ptr %5, align 4, !tbaa !4
  br label %12

12:                                               ; preds = %26, %2
  %13 = load i32, ptr %5, align 4, !tbaa !4
  %14 = icmp sge i32 %13, 0
  br i1 %14, label %16, label %15

15:                                               ; preds = %12
  call void @llvm.lifetime.end.p0(i64 4, ptr %5) #6
  br label %29

16:                                               ; preds = %12
  %17 = load i64, ptr %4, align 8, !tbaa !24
  %18 = shl i64 %17, 16
  %19 = getelementptr inbounds nuw %struct.AVInteger, ptr %3, i32 0, i32 0
  %20 = load i32, ptr %5, align 4, !tbaa !4
  %21 = sext i32 %20 to i64
  %22 = getelementptr inbounds [8 x i16], ptr %19, i64 0, i64 %21
  %23 = load i16, ptr %22, align 2, !tbaa !8
  %24 = zext i16 %23 to i64
  %25 = or i64 %18, %24
  store i64 %25, ptr %4, align 8, !tbaa !24
  br label %26

26:                                               ; preds = %16
  %27 = load i32, ptr %5, align 4, !tbaa !4
  %28 = add nsw i32 %27, -1
  store i32 %28, ptr %5, align 4, !tbaa !4
  br label %12, !llvm.loop !27

29:                                               ; preds = %15
  %30 = load i64, ptr %4, align 8, !tbaa !24
  call void @llvm.lifetime.end.p0(i64 8, ptr %4) #6
  ret i64 %30
}