; Function Attrs: mustprogress nofree norecurse nosync nounwind willreturn memory(none) uwtable
define i64 @av_i2int(i64 %0, i64 %1) local_unnamed_addr #0 {
  %3 = alloca %struct.AVInteger, align 8
  store i64 %0, ptr %3, align 8
  %4 = getelementptr inbounds nuw i8, ptr %3, i64 8
  store i64 %1, ptr %4, align 8
  %5 = lshr i64 %0, 48
  br label %7

6:                                                ; preds = %7
  ret i64 %12

7:                                                ; preds = %2, %7
  %indvars.iv = phi i64 [ 2, %2 ], [ %indvars.iv.next, %7 ]
  %.056 = phi i64 [ %5, %2 ], [ %12, %7 ]
  %8 = shl i64 %.056, 16
  %9 = getelementptr inbounds nuw [8 x i16], ptr %3, i64 0, i64 %indvars.iv
  %10 = load i16, ptr %9, align 2, !tbaa !4
  %11 = zext i16 %10 to i64
  %12 = or disjoint i64 %8, %11
  %indvars.iv.next = add nsw i64 %indvars.iv, -1
  %.not = icmp eq i64 %indvars.iv, 0
  br i1 %.not, label %6, label %7, !llvm.loop !19
}